target datalayout = "e-m:e-p270:32:32-p271:32:32-p272:64:64-i64:64-i128:128-f80:128-n8:16:32:64-S128"
target triple = "x86_64-unknown-linux-gnu"

%struct.statfs = type { i64, i64, i64, i64, i64, i64, i64, %struct.__fsid_t, i64, i64, i64, [4 x i64] }
%struct.__fsid_t = type { [2 x i32] }

; Function Attrs: nounwind uwtable
define internal i32 @uv__is_cifs_or_smb(i32 noundef %fd) #0 {
entry:
  %retval = alloca i32, align 4
  %fd.addr = alloca i32, align 4
  %s = alloca %struct.statfs, align 8
  store i32 %fd, ptr %fd.addr, align 4
  %0 = load i32, ptr %fd.addr, align 4
  %call = call i32 @fstatfs64(i32 noundef %0, ptr noundef %s) #8
  %cmp = icmp eq i32 -1, %call
  br i1 %cmp, label %if.then, label %if.end

if.then:                                          ; preds = %entry
  store i32 0, ptr %retval, align 4
  br label %return

if.end:                                           ; preds = %entry
  %f_type = getelementptr inbounds %struct.statfs, ptr %s, i32 0, i32 0
  %1 = load i64, ptr %f_type, align 8
  %conv = trunc i64 %1 to i32
  switch i32 %conv, label %sw.epilog [
    i32 20859, label %sw.bb
    i32 -28095166, label %sw.bb
    i32 -11317950, label %sw.bb
  ]

sw.bb:                                            ; preds = %if.end, %if.end, %if.end
  store i32 1, ptr %retval, align 4
  br label %return

sw.epilog:                                        ; preds = %if.end
  store i32 0, ptr %retval, align 4
  br label %return

return:                                           ; preds = %sw.epilog, %sw.bb, %if.then
  %2 = load i32, ptr %retval, align 4
  ret i32 %2
}