; Function Attrs: nounwind uwtable
define internal fastcc range(i32 0, 2) i32 @uv__is_cifs_or_smb(i32 noundef %fd) unnamed_addr #0 {
entry:
  %s = alloca %struct.statfs, align 8
  %call = call i32 @fstatfs64(i32 noundef %fd, ptr noundef nonnull %s) #15
  %cmp = icmp eq i32 %call, -1
  br i1 %cmp, label %return, label %if.end

if.end:                                           ; preds = %entry
  %0 = load i64, ptr %s, align 8
  %conv = trunc i64 %0 to i32
  switch i32 %conv, label %sw.epilog [
    i32 20859, label %return
    i32 -28095166, label %return
    i32 -11317950, label %return
  ]

sw.epilog:                                        ; preds = %if.end
  br label %return

return:                                           ; preds = %if.end, %if.end, %if.end, %entry, %sw.epilog
  %retval.0 = phi i32 [ 0, %sw.epilog ], [ 0, %entry ], [ 1, %if.end ], [ 1, %if.end ], [ 1, %if.end ]
  ret i32 %retval.0
}